target datalayout = "e-m:e-p270:32:32-p271:32:32-p272:64:64-i64:64-i128:128-f80:128-n8:16:32:64-S128"
target triple = "x86_64-pc-linux-gnu"

@sDefaultZipLevel = internal global i32 -1, align 4

; Function Attrs: nounwind uwtable
define void @exr_get_default_zip_compression_level(ptr noundef %0) #0 {
  %2 = alloca ptr, align 8
  store ptr %0, ptr %2, align 8, !tbaa !3
  %3 = load ptr, ptr %2, align 8, !tbaa !3
  %4 = icmp ne ptr %3, null
  br i1 %4, label %5, label %8

5:                                                ; preds = %1
  %6 = load i32, ptr @sDefaultZipLevel, align 4, !tbaa !11
  %7 = load ptr, ptr %2, align 8, !tbaa !3
  store i32 %6, ptr %7, align 4, !tbaa !11
  br label %8

8:                                                ; preds = %5, %1
  ret void
}