; Function Attrs: mustprogress nofree norecurse nosync nounwind willreturn memory(read, argmem: write, inaccessiblemem: none) uwtable
define void @exr_get_default_zip_compression_level(ptr noundef writeonly %0) local_unnamed_addr #3 {
  %.not = icmp eq ptr %0, null
  br i1 %.not, label %4, label %2

2:                                                ; preds = %1
  %3 = load i32, ptr @sDefaultZipLevel, align 4, !tbaa !3
  store i32 %3, ptr %0, align 4, !tbaa !3
  br label %4

4:                                                ; preds = %2, %1
  ret void
}